target datalayout = "e-m:e-p270:32:32-p271:32:32-p272:64:64-i64:64-i128:128-f80:128-n8:16:32:64-S128"
target triple = "x86_64-pc-linux-gnu"

%struct.Curl_ssl = type { %struct.curl_ssl_backend, i32, i64, ptr, ptr, ptr, ptr, ptr, ptr, ptr, ptr, ptr, ptr, ptr, ptr, ptr, ptr, ptr, ptr, ptr, ptr, ptr, ptr, ptr, ptr, ptr, ptr, ptr }
%struct.curl_ssl_backend = type { i32, ptr }

@Curl_ssl = dso_local global ptr @Curl_ssl_openssl, align 8
@Curl_cfree = external global ptr, align 8
@available_backends = internal global [2 x ptr] [ptr @Curl_ssl_openssl, ptr null], align 16
@.str.14 = private unnamed_addr constant [17 x i8] c"CURL_SSL_BACKEND\00", align 1

; Function Attrs: nounwind uwtable
define internal i32 @multissl_setup(ptr noundef %0) #0 {
  %2 = alloca i32, align 4
  %3 = alloca ptr, align 8
  %4 = alloca ptr, align 8
  %5 = alloca ptr, align 8
  %6 = alloca i32, align 4
  store ptr %0, ptr %3, align 8
  %7 = load ptr, ptr @Curl_ssl, align 8
  %8 = icmp ne ptr %7, @Curl_ssl_multi
  br i1 %8, label %9, label %10

9:                                                ; preds = %1
  store i32 1, ptr %2, align 4
  br label %57

10:                                               ; preds = %1
  %11 = load ptr, ptr %3, align 8
  %12 = icmp ne ptr %11, null
  br i1 %12, label %13, label %15

13:                                               ; preds = %10
  %14 = load ptr, ptr %3, align 8
  store ptr %14, ptr @Curl_ssl, align 8
  store i32 0, ptr %2, align 4
  br label %57

15:                                               ; preds = %10
  %16 = load ptr, ptr @available_backends, align 16
  %17 = icmp ne ptr %16, null
  br i1 %17, label %19, label %18

18:                                               ; preds = %15
  store i32 1, ptr %2, align 4
  br label %57

19:                                               ; preds = %15
  %20 = call ptr @curl_getenv(ptr noundef @.str.14)
  store ptr %20, ptr %5, align 8
  store ptr %20, ptr %4, align 8
  %21 = load ptr, ptr %4, align 8
  %22 = icmp ne ptr %21, null
  br i1 %22, label %23, label %53

23:                                               ; preds = %19
  store i32 0, ptr %6, align 4
  br label %24

24:                                               ; preds = %49, %23
  %25 = load i32, ptr %6, align 4
  %26 = sext i32 %25 to i64
  %27 = getelementptr inbounds [2 x ptr], ptr @available_backends, i64 0, i64 %26
  %28 = load ptr, ptr %27, align 8
  %29 = icmp ne ptr %28, null
  br i1 %29, label %30, label %52

30:                                               ; preds = %24
  %31 = load ptr, ptr %4, align 8
  %32 = load i32, ptr %6, align 4
  %33 = sext i32 %32 to i64
  %34 = getelementptr inbounds [2 x ptr], ptr @available_backends, i64 0, i64 %33
  %35 = load ptr, ptr %34, align 8
  %36 = getelementptr inbounds %struct.Curl_ssl, ptr %35, i32 0, i32 0
  %37 = getelementptr inbounds %struct.curl_ssl_backend, ptr %36, i32 0, i32 1
  %38 = load ptr, ptr %37, align 8
  %39 = call i32 @curl_strequal(ptr noundef %31, ptr noundef %38)
  %40 = icmp ne i32 %39, 0
  br i1 %40, label %41, label %48

41:                                               ; preds = %30
  %42 = load i32, ptr %6, align 4
  %43 = sext i32 %42 to i64
  %44 = getelementptr inbounds [2 x ptr], ptr @available_backends, i64 0, i64 %43
  %45 = load ptr, ptr %44, align 8
  store ptr %45, ptr @Curl_ssl, align 8
  %46 = load ptr, ptr @Curl_cfree, align 8
  %47 = load ptr, ptr %5, align 8
  call void %46(ptr noundef %47)
  store i32 0, ptr %2, align 4
  br label %57

48:                                               ; preds = %30
  br label %49

49:                                               ; preds = %48
  %50 = load i32, ptr %6, align 4
  %51 = add nsw i32 %50, 1
  store i32 %51, ptr %6, align 4
  br label %24, !llvm.loop !5

52:                                               ; preds = %24
  br label %53

53:                                               ; preds = %52, %19
  %54 = load ptr, ptr @available_backends, align 16
  store ptr %54, ptr @Curl_ssl, align 8
  %55 = load ptr, ptr @Curl_cfree, align 8
  %56 = load ptr, ptr %5, align 8
  call void %55(ptr noundef %56)
  store i32 0, ptr %2, align 4
  br label %57

57:                                               ; preds = %53, %41, %18, %13, %9
  %58 = load i32, ptr %2, align 4
  ret i32 %58
}

; Function Attrs: nounwind uwtable
define internal void @multissl_adjust_pollset(ptr noundef %0, ptr noundef %1, ptr noundef %2) #0 {
  %4 = alloca ptr, align 8
  %5 = alloca ptr, align 8
  %6 = alloca ptr, align 8
  store ptr %0, ptr %4, align 8
  store ptr %1, ptr %5, align 8
  store ptr %2, ptr %6, align 8
  %7 = call i32 @multissl_setup(ptr noundef null)
  %8 = icmp ne i32 %7, 0
  br i1 %8, label %9, label %10

9:                                                ; preds = %3
  br label %17

10:                                               ; preds = %3
  %11 = load ptr, ptr @Curl_ssl, align 8
  %12 = getelementptr inbounds %struct.Curl_ssl, ptr %11, i32 0, i32 13
  %13 = load ptr, ptr %12, align 8
  %14 = load ptr, ptr %4, align 8
  %15 = load ptr, ptr %5, align 8
  %16 = load ptr, ptr %6, align 8
  call void %13(ptr noundef %14, ptr noundef %15, ptr noundef %16)
  br label %17

17:                                               ; preds = %10, %9
  ret void
}